; Function Attrs: nounwind uwtable
define range(i32 -21, 1) i32 @CVodeGetWorkSpace(ptr noundef readonly captures(address_is_null) %0, ptr noundef writeonly captures(none) %1, ptr noundef writeonly captures(none) %2) local_unnamed_addr #0 {
  %4 = icmp eq ptr %0, null
  br i1 %4, label %5, label %6

5:                                                ; preds = %3
  tail call void (ptr, i32, ptr, ptr, ptr, ...) @cvProcessError(ptr noundef null, i32 noundef -21, ptr noundef nonnull @.str, ptr noundef nonnull @.str.56, ptr noundef nonnull @.str.2) #6
  br label %11

6:                                                ; preds = %3
  %7 = getelementptr inbounds nuw i8, ptr %0, i64 1632
  %8 = load i64, ptr %7, align 8, !tbaa !78
  store i64 %8, ptr %2, align 8, !tbaa !65
  %9 = getelementptr inbounds nuw i8, ptr %0, i64 1624
  %10 = load i64, ptr %9, align 8, !tbaa !79
  store i64 %10, ptr %1, align 8, !tbaa !65
  br label %11

11:                                               ; preds = %6, %5
  %.0 = phi i32 [ -21, %5 ], [ 0, %6 ]
  ret i32 %.0
}